target datalayout = "e-m:e-p270:32:32-p271:32:32-p272:64:64-i64:64-i128:128-f80:128-n8:16:32:64-S128"
target triple = "x86_64-unknown-linux-gnu"

%"class.rocksdb::Slice" = type { ptr, i64 }
%"class.rocksdb::log::Reader" = type { ptr, %"class.std::shared_ptr", %"class.std::unique_ptr", ptr, i8, ptr, %"class.rocksdb::Slice", i8, i8, i64, i64, i64, i64, i8, i8, i8, i8, ptr, %"class.std::unique_ptr.2", %"class.std::__cxx11::basic_string", ptr, ptr, %"class.std::unordered_map" }
%"class.std::shared_ptr" = type { %"class.std::__shared_ptr" }
%"class.std::__shared_ptr" = type { ptr, %"class.std::__shared_count" }
%"class.std::__shared_count" = type { ptr }
%"class.std::unique_ptr" = type { %"struct.std::__uniq_ptr_data" }
%"struct.std::__uniq_ptr_data" = type { %"class.std::__uniq_ptr_impl" }
%"class.std::__uniq_ptr_impl" = type { %"class.std::tuple" }
%"class.std::tuple" = type { %"struct.std::_Tuple_impl" }
%"struct.std::_Tuple_impl" = type { %"struct.std::_Head_base.1" }
%"struct.std::_Head_base.1" = type { ptr }
%"class.std::unique_ptr.2" = type { %"struct.std::__uniq_ptr_data.3" }
%"struct.std::__uniq_ptr_data.3" = type { %"class.std::__uniq_ptr_impl.4" }
%"class.std::__uniq_ptr_impl.4" = type { %"class.std::tuple.5" }
%"class.std::tuple.5" = type { %"struct.std::_Tuple_impl.6" }
%"struct.std::_Tuple_impl.6" = type { %"struct.std::_Head_base.9" }
%"struct.std::_Head_base.9" = type { ptr }
%"class.std::__cxx11::basic_string" = type { %"struct.std::__cxx11::basic_string<char>::_Alloc_hider", i64, %union.anon }
%"struct.std::__cxx11::basic_string<char>::_Alloc_hider" = type { ptr }
%union.anon = type { i64, [8 x i8] }
%"class.std::unordered_map" = type { %"class.std::_Hashtable" }
%"class.std::_Hashtable" = type { ptr, i64, %"struct.std::__detail::_Hash_node_base", i64, %"struct.std::__detail::_Prime_rehash_policy", ptr }
%"struct.std::__detail::_Hash_node_base" = type { ptr }
%"struct.std::__detail::_Prime_rehash_policy" = type { float, i64 }

; Function Attrs: mustprogress uwtable
define void @_ZN7rocksdb3log6Reader10ReportDropEmRKNS_6StatusE(ptr noundef nonnull align 8 dereferenceable(240) %this, i64 noundef %bytes, ptr noundef nonnull align 8 dereferenceable(16) %reason) #0 align 2 {
entry:
  %this.addr = alloca ptr, align 8
  %bytes.addr = alloca i64, align 8
  %reason.addr = alloca ptr, align 8
  store ptr %this, ptr %this.addr, align 8
  store i64 %bytes, ptr %bytes.addr, align 8
  store ptr %reason, ptr %reason.addr, align 8
  %this1 = load ptr, ptr %this.addr, align 8
  %reporter_ = getelementptr inbounds %"class.rocksdb::log::Reader", ptr %this1, i32 0, i32 3
  %0 = load ptr, ptr %reporter_, align 8
  %cmp = icmp ne ptr %0, null
  br i1 %cmp, label %if.then, label %if.end

if.then:                                          ; preds = %entry
  %reporter_2 = getelementptr inbounds %"class.rocksdb::log::Reader", ptr %this1, i32 0, i32 3
  %1 = load ptr, ptr %reporter_2, align 8
  %2 = load i64, ptr %bytes.addr, align 8
  %3 = load ptr, ptr %reason.addr, align 8
  %vtable = load ptr, ptr %1, align 8
  %vfn = getelementptr inbounds ptr, ptr %vtable, i64 2
  %4 = load ptr, ptr %vfn, align 8
  call void %4(ptr noundef nonnull align 8 dereferenceable(8) %1, i64 noundef %2, ptr noundef nonnull align 8 dereferenceable(16) %3)
  br label %if.end

if.end:                                           ; preds = %if.then, %entry
  ret void
}