; Function Attrs: mustprogress uwtable
define void @_ZN7rocksdb3log6Reader10ReportDropEmRKNS_6StatusE(ptr nocapture noundef nonnull readonly align 8 dereferenceable(240) %this, i64 noundef %bytes, ptr noundef nonnull align 8 dereferenceable(16) %reason) local_unnamed_addr #3 align 2 {
entry:
  %reporter_ = getelementptr inbounds i8, ptr %this, i64 32
  %0 = load ptr, ptr %reporter_, align 8
  %cmp.not = icmp eq ptr %0, null
  br i1 %cmp.not, label %if.end, label %if.then

if.then:                                          ; preds = %entry
  %vtable = load ptr, ptr %0, align 8
  %vfn = getelementptr inbounds i8, ptr %vtable, i64 16
  %1 = load ptr, ptr %vfn, align 8
  tail call void %1(ptr noundef nonnull align 8 dereferenceable(8) %0, i64 noundef %bytes, ptr noundef nonnull align 8 dereferenceable(16) %reason)
  br label %if.end

if.end:                                           ; preds = %if.then, %entry
  ret void
}